target datalayout = "e-m:e-p270:32:32-p271:32:32-p272:64:64-i64:64-i128:128-f80:128-n8:16:32:64-S128"
target triple = "x86_64-pc-linux-gnu"

%struct.AVFormatContext = type { ptr, ptr, ptr, ptr, ptr, i32, i32, ptr, i32, ptr, i32, ptr, ptr, i64, i64, i64, i32, i32, i32, i64, i64, ptr, i32, i32, ptr, i32, i32, i32, i32, ptr, i64, i32, i32, %struct.AVIOInterruptCB, i32, i32, i32, i32, i64, i32, i32, i32, i32, i32, i32, i32, i32, i32, i32, i32, i32, i64, i32, i32, i32, i32, i32, ptr, ptr, ptr, ptr, i32, ptr, ptr, ptr, ptr, i32, ptr, ptr, i64, ptr, ptr, ptr, i64 }
%struct.AVIOInterruptCB = type { ptr, ptr }
%struct.RTPMuxContext = type { ptr, ptr, ptr, i32, i32, ptr, i32, i32, i32, i32, i32, i32, i64, i64, i32, i32, i32, i32, ptr, ptr, i32, i32, i32, i32, i32 }

; Function Attrs: nounwind uwtable
define void @ff_rtp_send_vp9(ptr noundef %0, ptr noundef %1, i32 noundef %2) #0 {
  %4 = alloca ptr, align 8
  %5 = alloca ptr, align 8
  %6 = alloca i32, align 4
  %7 = alloca ptr, align 8
  %8 = alloca i32, align 4
  store ptr %0, ptr %4, align 8, !tbaa !4
  store ptr %1, ptr %5, align 8, !tbaa !9
  store i32 %2, ptr %6, align 4, !tbaa !11
  call void @llvm.lifetime.start.p0(i64 8, ptr %7) #4
  %9 = load ptr, ptr %4, align 8, !tbaa !4
  %10 = getelementptr inbounds nuw %struct.AVFormatContext, ptr %9, i32 0, i32 3
  %11 = load ptr, ptr %10, align 8, !tbaa !13
  store ptr %11, ptr %7, align 8, !tbaa !28
  call void @llvm.lifetime.start.p0(i64 4, ptr %8) #4
  %12 = load ptr, ptr %7, align 8, !tbaa !28
  %13 = getelementptr inbounds nuw %struct.RTPMuxContext, ptr %12, i32 0, i32 9
  %14 = load i32, ptr %13, align 4, !tbaa !30
  %15 = load ptr, ptr %7, align 8, !tbaa !28
  %16 = getelementptr inbounds nuw %struct.RTPMuxContext, ptr %15, i32 0, i32 7
  store i32 %14, ptr %16, align 4, !tbaa !33
  %17 = load ptr, ptr %7, align 8, !tbaa !28
  %18 = getelementptr inbounds nuw %struct.RTPMuxContext, ptr %17, i32 0, i32 18
  %19 = load ptr, ptr %18, align 8, !tbaa !34
  %20 = load ptr, ptr %7, align 8, !tbaa !28
  %21 = getelementptr inbounds nuw %struct.RTPMuxContext, ptr %20, i32 0, i32 19
  store ptr %19, ptr %21, align 8, !tbaa !35
  %22 = load ptr, ptr %7, align 8, !tbaa !28
  %23 = getelementptr inbounds nuw %struct.RTPMuxContext, ptr %22, i32 0, i32 19
  %24 = load ptr, ptr %23, align 8, !tbaa !35
  %25 = getelementptr inbounds nuw i8, ptr %24, i32 1
  store ptr %25, ptr %23, align 8, !tbaa !35
  store i8 8, ptr %24, align 1, !tbaa !36
  br label %26

26:                                               ; preds = %57, %3
  %27 = load i32, ptr %6, align 4, !tbaa !11
  %28 = icmp sgt i32 %27, 0
  br i1 %28, label %29, label %89

29:                                               ; preds = %26
  %30 = load i32, ptr %6, align 4, !tbaa !11
  %31 = load ptr, ptr %7, align 8, !tbaa !28
  %32 = getelementptr inbounds nuw %struct.RTPMuxContext, ptr %31, i32 0, i32 10
  %33 = load i32, ptr %32, align 8, !tbaa !37
  %34 = sub nsw i32 %33, 1
  %35 = icmp sgt i32 %30, %34
  br i1 %35, label %36, label %41

36:                                               ; preds = %29
  %37 = load ptr, ptr %7, align 8, !tbaa !28
  %38 = getelementptr inbounds nuw %struct.RTPMuxContext, ptr %37, i32 0, i32 10
  %39 = load i32, ptr %38, align 8, !tbaa !37
  %40 = sub nsw i32 %39, 1
  br label %43

41:                                               ; preds = %29
  %42 = load i32, ptr %6, align 4, !tbaa !11
  br label %43

43:                                               ; preds = %41, %36
  %44 = phi i32 [ %40, %36 ], [ %42, %41 ]
  store i32 %44, ptr %8, align 4, !tbaa !11
  %45 = load i32, ptr %8, align 4, !tbaa !11
  %46 = load i32, ptr %6, align 4, !tbaa !11
  %47 = icmp eq i32 %45, %46
  br i1 %47, label %48, label %57

48:                                               ; preds = %43
  %49 = load ptr, ptr %7, align 8, !tbaa !28
  %50 = getelementptr inbounds nuw %struct.RTPMuxContext, ptr %49, i32 0, i32 18
  %51 = load ptr, ptr %50, align 8, !tbaa !34
  %52 = getelementptr inbounds i8, ptr %51, i64 0
  %53 = load i8, ptr %52, align 1, !tbaa !36
  %54 = zext i8 %53 to i32
  %55 = or i32 %54, 4
  %56 = trunc i32 %55 to i8
  store i8 %56, ptr %52, align 1, !tbaa !36
  br label %57

57:                                               ; preds = %48, %43
  %58 = load ptr, ptr %7, align 8, !tbaa !28
  %59 = getelementptr inbounds nuw %struct.RTPMuxContext, ptr %58, i32 0, i32 19
  %60 = load ptr, ptr %59, align 8, !tbaa !35
  %61 = load ptr, ptr %5, align 8, !tbaa !9
  %62 = load i32, ptr %8, align 4, !tbaa !11
  %63 = sext i32 %62 to i64
  call void @llvm.memcpy.p0.p0.i64(ptr align 1 %60, ptr align 1 %61, i64 %63, i1 false)
  %64 = load ptr, ptr %4, align 8, !tbaa !4
  %65 = load ptr, ptr %7, align 8, !tbaa !28
  %66 = getelementptr inbounds nuw %struct.RTPMuxContext, ptr %65, i32 0, i32 18
  %67 = load ptr, ptr %66, align 8, !tbaa !34
  %68 = load i32, ptr %8, align 4, !tbaa !11
  %69 = add nsw i32 %68, 1
  %70 = load i32, ptr %6, align 4, !tbaa !11
  %71 = load i32, ptr %8, align 4, !tbaa !11
  %72 = icmp eq i32 %70, %71
  %73 = zext i1 %72 to i32
  call void @ff_rtp_send_data(ptr noundef %64, ptr noundef %67, i32 noundef %69, i32 noundef %73)
  %74 = load i32, ptr %8, align 4, !tbaa !11
  %75 = load i32, ptr %6, align 4, !tbaa !11
  %76 = sub nsw i32 %75, %74
  store i32 %76, ptr %6, align 4, !tbaa !11
  %77 = load i32, ptr %8, align 4, !tbaa !11
  %78 = load ptr, ptr %5, align 8, !tbaa !9
  %79 = sext i32 %77 to i64
  %80 = getelementptr inbounds i8, ptr %78, i64 %79
  store ptr %80, ptr %5, align 8, !tbaa !9
  %81 = load ptr, ptr %7, align 8, !tbaa !28
  %82 = getelementptr inbounds nuw %struct.RTPMuxContext, ptr %81, i32 0, i32 18
  %83 = load ptr, ptr %82, align 8, !tbaa !34
  %84 = getelementptr inbounds i8, ptr %83, i64 0
  %85 = load i8, ptr %84, align 1, !tbaa !36
  %86 = zext i8 %85 to i32
  %87 = and i32 %86, -9
  %88 = trunc i32 %87 to i8
  store i8 %88, ptr %84, align 1, !tbaa !36
  br label %26, !llvm.loop !38

89:                                               ; preds = %26
  call void @llvm.lifetime.end.p0(i64 4, ptr %8) #4
  call void @llvm.lifetime.end.p0(i64 8, ptr %7) #4
  ret void
}

; Function Attrs: nocallback nofree nosync nounwind willreturn memory(argmem: readwrite)
declare void @llvm.lifetime.start.p0(i64 immarg, ptr captures(none)) #1

; Function Attrs: nocallback nofree nounwind willreturn memory(argmem: readwrite)
declare void @llvm.memcpy.p0.p0.i64(ptr noalias writeonly captures(none), ptr noalias readonly captures(none), i64, i1 immarg) #2

declare void @ff_rtp_send_data(ptr noundef, ptr noundef, i32 noundef, i32 noundef) #3

; Function Attrs: nocallback nofree nosync nounwind willreturn memory(argmem: readwrite)
declare void @llvm.lifetime.end.p0(i64 immarg, ptr captures(none)) #1


!llvm.module.flags = !{!0, !1, !2, !3}

!0 = !{i32 1, !"wchar_size", i32 4}
!1 = !{i32 8, !"PIC Level", i32 2}
!2 = !{i32 7, !"uwtable", i32 2}
!3 = !{i32 1, !"override-stack-alignment", i32 16}
!4 = !{!5, !5, i64 0}
!5 = !{!"p1 _ZTS15AVFormatContext", !6, i64 0}
!6 = !{!"any pointer", !7, i64 0}
!7 = !{!"omnipotent char", !8, i64 0}
!8 = !{!"Simple C/C++ TBAA"}
!9 = !{!10, !10, i64 0}
!10 = !{!"p1 omnipotent char", !6, i64 0}
!11 = !{!12, !12, i64 0}
!12 = !{!"int", !7, i64 0}
!13 = !{!14, !6, i64 24}
!14 = !{!"AVFormatContext", !15, i64 0, !16, i64 8, !17, i64 16, !6, i64 24, !18, i64 32, !12, i64 40, !12, i64 44, !19, i64 48, !12, i64 56, !21, i64 64, !12, i64 72, !22, i64 80, !10, i64 88, !23, i64 96, !23, i64 104, !23, i64 112, !12, i64 120, !12, i64 124, !12, i64 128, !23, i64 136, !23, i64 144, !10, i64 152, !12, i64 160, !12, i64 164, !24, i64 168, !12, i64 176, !12, i64 180, !12, i64 184, !12, i64 188, !25, i64 192, !23, i64 200, !12, i64 208, !12, i64 212, !26, i64 216, !12, i64 232, !12, i64 236, !12, i64 240, !12, i64 244, !23, i64 248, !12, i64 256, !12, i64 260, !12, i64 264, !12, i64 268, !12, i64 272, !12, i64 276, !12, i64 280, !12, i64 284, !12, i64 288, !12, i64 292, !12, i64 296, !12, i64 300, !23, i64 304, !12, i64 312, !12, i64 316, !12, i64 320, !12, i64 324, !12, i64 328, !10, i64 336, !10, i64 344, !10, i64 352, !10, i64 360, !12, i64 368, !27, i64 376, !27, i64 384, !27, i64 392, !27, i64 400, !12, i64 408, !6, i64 416, !6, i64 424, !23, i64 432, !10, i64 440, !6, i64 448, !6, i64 456, !23, i64 464}
!15 = !{!"p1 _ZTS7AVClass", !6, i64 0}
!16 = !{!"p1 _ZTS13AVInputFormat", !6, i64 0}
!17 = !{!"p1 _ZTS14AVOutputFormat", !6, i64 0}
!18 = !{!"p1 _ZTS11AVIOContext", !6, i64 0}
!19 = !{!"p2 _ZTS8AVStream", !20, i64 0}
!20 = !{!"any p2 pointer", !6, i64 0}
!21 = !{!"p2 _ZTS13AVStreamGroup", !20, i64 0}
!22 = !{!"p2 _ZTS9AVChapter", !20, i64 0}
!23 = !{!"long", !7, i64 0}
!24 = !{!"p2 _ZTS9AVProgram", !20, i64 0}
!25 = !{!"p1 _ZTS12AVDictionary", !6, i64 0}
!26 = !{!"AVIOInterruptCB", !6, i64 0, !6, i64 8}
!27 = !{!"p1 _ZTS7AVCodec", !6, i64 0}
!28 = !{!29, !29, i64 0}
!29 = !{!"p1 _ZTS13RTPMuxContext", !6, i64 0}
!30 = !{!31, !12, i64 52}
!31 = !{!"RTPMuxContext", !15, i64 0, !5, i64 8, !32, i64 16, !12, i64 24, !12, i64 28, !10, i64 32, !12, i64 40, !12, i64 44, !12, i64 48, !12, i64 52, !12, i64 56, !12, i64 60, !23, i64 64, !23, i64 72, !12, i64 80, !12, i64 84, !12, i64 88, !12, i64 92, !10, i64 96, !10, i64 104, !12, i64 112, !12, i64 116, !12, i64 120, !12, i64 124, !12, i64 128}
!32 = !{!"p1 _ZTS8AVStream", !6, i64 0}
!33 = !{!31, !12, i64 44}
!34 = !{!31, !10, i64 96}
!35 = !{!31, !10, i64 104}
!36 = !{!7, !7, i64 0}
!37 = !{!31, !12, i64 56}
!38 = distinct !{!38, !39}
!39 = !{!"llvm.loop.mustprogress"}
