; ModuleID = 'bench/ffmpeg/original/rtpenc_vp9.ll'
source_filename = "bench/ffmpeg/original/rtpenc_vp9.ll"
target datalayout = "e-m:e-p270:32:32-p271:32:32-p272:64:64-i64:64-i128:128-f80:128-n8:16:32:64-S128"
target triple = "x86_64-pc-linux-gnu"

; Function Attrs: nounwind uwtable
define void @ff_rtp_send_vp9(ptr noundef %0, ptr noundef readonly captures(none) %1, i32 noundef %2) local_unnamed_addr #0 {
  %4 = getelementptr inbounds nuw i8, ptr %0, i64 24
  %5 = load ptr, ptr %4, align 8, !tbaa !4
  %6 = getelementptr inbounds nuw i8, ptr %5, i64 52
  %7 = load i32, ptr %6, align 4, !tbaa !24
  %8 = getelementptr inbounds nuw i8, ptr %5, i64 44
  store i32 %7, ptr %8, align 4, !tbaa !28
  %9 = getelementptr inbounds nuw i8, ptr %5, i64 96
  %10 = load ptr, ptr %9, align 8, !tbaa !29
  %11 = getelementptr inbounds nuw i8, ptr %5, i64 104
  %12 = getelementptr inbounds nuw i8, ptr %10, i64 1
  store ptr %12, ptr %11, align 8, !tbaa !30
  store i8 8, ptr %10, align 1, !tbaa !31
  %13 = icmp sgt i32 %2, 0
  br i1 %13, label %.lr.ph, label %._crit_edge

.lr.ph:                                           ; preds = %3
  %14 = getelementptr inbounds nuw i8, ptr %5, i64 56
  br label %15

15:                                               ; preds = %.lr.ph, %24
  %.029 = phi ptr [ %1, %.lr.ph ], [ %31, %24 ]
  %.02628 = phi i32 [ %2, %.lr.ph ], [ %30, %24 ]
  %16 = load i32, ptr %14, align 8, !tbaa !32
  %.not = icmp slt i32 %.02628, %16
  %17 = add nsw i32 %16, -1
  %18 = select i1 %.not, i32 %.02628, i32 %17
  %19 = icmp eq i32 %18, %.02628
  br i1 %19, label %20, label %24

20:                                               ; preds = %15
  %21 = load ptr, ptr %9, align 8, !tbaa !29
  %22 = load i8, ptr %21, align 1, !tbaa !31
  %23 = or i8 %22, 4
  store i8 %23, ptr %21, align 1, !tbaa !31
  br label %24

24:                                               ; preds = %20, %15
  %25 = load ptr, ptr %11, align 8, !tbaa !30
  %26 = sext i32 %18 to i64
  tail call void @llvm.memcpy.p0.p0.i64(ptr align 1 %25, ptr align 1 %.029, i64 %26, i1 false)
  %27 = load ptr, ptr %9, align 8, !tbaa !29
  %28 = add nsw i32 %18, 1
  %29 = zext i1 %19 to i32
  tail call void @ff_rtp_send_data(ptr noundef %0, ptr noundef %27, i32 noundef %28, i32 noundef %29) #3
  %30 = sub nsw i32 %.02628, %18
  %31 = getelementptr inbounds i8, ptr %.029, i64 %26
  %32 = load ptr, ptr %9, align 8, !tbaa !29
  %33 = load i8, ptr %32, align 1, !tbaa !31
  %34 = and i8 %33, -9
  store i8 %34, ptr %32, align 1, !tbaa !31
  %35 = icmp sgt i32 %30, 0
  br i1 %35, label %15, label %._crit_edge, !llvm.loop !33

._crit_edge:                                      ; preds = %24, %3
  ret void
}

; Function Attrs: mustprogress nocallback nofree nounwind willreturn memory(argmem: readwrite)
declare void @llvm.memcpy.p0.p0.i64(ptr noalias writeonly captures(none), ptr noalias readonly captures(none), i64, i1 immarg) #1

declare void @ff_rtp_send_data(ptr noundef, ptr noundef, i32 noundef, i32 noundef) local_unnamed_addr #2


!llvm.module.flags = !{!0, !1, !2, !3}

!0 = !{i32 1, !"wchar_size", i32 4}
!1 = !{i32 8, !"PIC Level", i32 2}
!2 = !{i32 7, !"uwtable", i32 2}
!3 = !{i32 1, !"override-stack-alignment", i32 16}
!4 = !{!5, !7, i64 24}
!5 = !{!"AVFormatContext", !6, i64 0, !10, i64 8, !11, i64 16, !7, i64 24, !12, i64 32, !13, i64 40, !13, i64 44, !14, i64 48, !13, i64 56, !16, i64 64, !13, i64 72, !17, i64 80, !18, i64 88, !19, i64 96, !19, i64 104, !19, i64 112, !13, i64 120, !13, i64 124, !13, i64 128, !19, i64 136, !19, i64 144, !18, i64 152, !13, i64 160, !13, i64 164, !20, i64 168, !13, i64 176, !13, i64 180, !13, i64 184, !13, i64 188, !21, i64 192, !19, i64 200, !13, i64 208, !13, i64 212, !22, i64 216, !13, i64 232, !13, i64 236, !13, i64 240, !13, i64 244, !19, i64 248, !13, i64 256, !13, i64 260, !13, i64 264, !13, i64 268, !13, i64 272, !13, i64 276, !13, i64 280, !13, i64 284, !13, i64 288, !13, i64 292, !13, i64 296, !13, i64 300, !19, i64 304, !13, i64 312, !13, i64 316, !13, i64 320, !13, i64 324, !13, i64 328, !18, i64 336, !18, i64 344, !18, i64 352, !18, i64 360, !13, i64 368, !23, i64 376, !23, i64 384, !23, i64 392, !23, i64 400, !13, i64 408, !7, i64 416, !7, i64 424, !19, i64 432, !18, i64 440, !7, i64 448, !7, i64 456, !19, i64 464}
!6 = !{!"p1 _ZTS7AVClass", !7, i64 0}
!7 = !{!"any pointer", !8, i64 0}
!8 = !{!"omnipotent char", !9, i64 0}
!9 = !{!"Simple C/C++ TBAA"}
!10 = !{!"p1 _ZTS13AVInputFormat", !7, i64 0}
!11 = !{!"p1 _ZTS14AVOutputFormat", !7, i64 0}
!12 = !{!"p1 _ZTS11AVIOContext", !7, i64 0}
!13 = !{!"int", !8, i64 0}
!14 = !{!"p2 _ZTS8AVStream", !15, i64 0}
!15 = !{!"any p2 pointer", !7, i64 0}
!16 = !{!"p2 _ZTS13AVStreamGroup", !15, i64 0}
!17 = !{!"p2 _ZTS9AVChapter", !15, i64 0}
!18 = !{!"p1 omnipotent char", !7, i64 0}
!19 = !{!"long", !8, i64 0}
!20 = !{!"p2 _ZTS9AVProgram", !15, i64 0}
!21 = !{!"p1 _ZTS12AVDictionary", !7, i64 0}
!22 = !{!"AVIOInterruptCB", !7, i64 0, !7, i64 8}
!23 = !{!"p1 _ZTS7AVCodec", !7, i64 0}
!24 = !{!25, !13, i64 52}
!25 = !{!"RTPMuxContext", !6, i64 0, !26, i64 8, !27, i64 16, !13, i64 24, !13, i64 28, !18, i64 32, !13, i64 40, !13, i64 44, !13, i64 48, !13, i64 52, !13, i64 56, !13, i64 60, !19, i64 64, !19, i64 72, !13, i64 80, !13, i64 84, !13, i64 88, !13, i64 92, !18, i64 96, !18, i64 104, !13, i64 112, !13, i64 116, !13, i64 120, !13, i64 124, !13, i64 128}
!26 = !{!"p1 _ZTS15AVFormatContext", !7, i64 0}
!27 = !{!"p1 _ZTS8AVStream", !7, i64 0}
!28 = !{!25, !13, i64 44}
!29 = !{!25, !18, i64 96}
!30 = !{!25, !18, i64 104}
!31 = !{!8, !8, i64 0}
!32 = !{!25, !13, i64 56}
!33 = distinct !{!33, !34}
!34 = !{!"llvm.loop.mustprogress"}
